; Function Attrs: mustprogress nounwind uwtable
define dso_local void @_ZN5clang7CodeGen15CodeGenFunction17getVTablePointersEPKNS_13CXXRecordDeclE(ptr dead_on_unwind noalias nonnull writable sret(%"class.llvm::SmallVector.1147") align 8 %0, ptr nocapture noundef nonnull readonly align 8 dereferenceable(6488) %1, ptr noundef %2) local_unnamed_addr #0 align 2 {
  %4 = alloca %"class.llvm::SmallPtrSet.1160", align 8
  %5 = getelementptr inbounds i8, ptr %0, i64 16
  tail call void @_ZN4llvm15SmallVectorBaseIjEC2EPvm(ptr noundef nonnull align 8 dereferenceable(16) %0, ptr noundef nonnull %5, i64 noundef 4) #13
  %6 = getelementptr inbounds nuw i8, ptr %4, i64 32
  store ptr %6, ptr %4, align 8
  %7 = getelementptr inbounds nuw i8, ptr %4, i64 8
  store ptr %6, ptr %7, align 8
  %8 = getelementptr inbounds nuw i8, ptr %4, i64 16
  store i32 4, ptr %8, align 8
  %9 = getelementptr inbounds nuw i8, ptr %4, i64 20
  store i32 0, ptr %9, align 4
  %10 = getelementptr inbounds nuw i8, ptr %4, i64 24
  store i32 0, ptr %10, align 8
  call void @_ZN5clang7CodeGen15CodeGenFunction17getVTablePointersENS_13BaseSubobjectEPKNS_13CXXRecordDeclENS_9CharUnitsEbS5_RN4llvm11SmallPtrSetIS5_Lj4EEERNS7_11SmallVectorINS1_4VPtrELj4EEE(ptr noundef nonnull align 8 dereferenceable(6488) %1, ptr %2, i64 0, ptr noundef null, i64 0, i1 noundef zeroext false, ptr noundef %2, ptr noundef nonnull align 8 dereferenceable(64) %4, ptr noundef nonnull align 8 dereferenceable(176) %0)
  %11 = load ptr, ptr %7, align 8
  %12 = load ptr, ptr %4, align 8
  %13 = icmp eq ptr %11, %12
  br i1 %13, label %_ZN4llvm11SmallPtrSetIPKN5clang13CXXRecordDeclELj4EED2Ev.exit, label %14

14:                                               ; preds = %3
  call void @free(ptr noundef %11) #13
  br label %_ZN4llvm11SmallPtrSetIPKN5clang13CXXRecordDeclELj4EED2Ev.exit

_ZN4llvm11SmallPtrSetIPKN5clang13CXXRecordDeclELj4EED2Ev.exit: ; preds = %3, %14
  ret void
}